target datalayout = "e-m:e-p270:32:32-p271:32:32-p272:64:64-i64:64-i128:128-f80:128-n8:16:32:64-S128"
target triple = "x86_64-pc-linux-gnu"

%struct.Vec_Ptr_t_ = type { i32, i32, ptr }
%struct.Vec_Flt_t_ = type { i32, i32, ptr }
%struct.Vec_Vec_t_ = type { i32, i32, ptr }

; Function Attrs: nounwind uwtable
define internal ptr @Vec_VecEntry(ptr noundef %0, i32 noundef %1) #0 {
  %3 = alloca ptr, align 8
  %4 = alloca i32, align 4
  store ptr %0, ptr %3, align 8
  store i32 %1, ptr %4, align 4
  %5 = load ptr, ptr %3, align 8
  %6 = getelementptr inbounds %struct.Vec_Vec_t_, ptr %5, i32 0, i32 2
  %7 = load ptr, ptr %6, align 8
  %8 = load i32, ptr %4, align 4
  %9 = sext i32 %8 to i64
  %10 = getelementptr inbounds ptr, ptr %7, i64 %9
  %11 = load ptr, ptr %10, align 8
  ret ptr %11
}

; Function Attrs: nounwind uwtable
define internal i32 @Vec_VecSize(ptr noundef %0) #0 {
  %2 = alloca ptr, align 8
  store ptr %0, ptr %2, align 8
  %3 = load ptr, ptr %2, align 8
  %4 = getelementptr inbounds %struct.Vec_Vec_t_, ptr %3, i32 0, i32 1
  %5 = load i32, ptr %4, align 4
  ret i32 %5
}

; Function Attrs: nounwind uwtable
define internal void @Vec_FltFree(ptr noundef %0) #0 {
  %2 = alloca ptr, align 8
  store ptr %0, ptr %2, align 8
  %3 = load ptr, ptr %2, align 8
  %4 = getelementptr inbounds %struct.Vec_Flt_t_, ptr %3, i32 0, i32 2
  %5 = load ptr, ptr %4, align 8
  %6 = icmp ne ptr %5, null
  br i1 %6, label %7, label %13

7:                                                ; preds = %1
  %8 = load ptr, ptr %2, align 8
  %9 = getelementptr inbounds %struct.Vec_Flt_t_, ptr %8, i32 0, i32 2
  %10 = load ptr, ptr %9, align 8
  call void @free(ptr noundef %10) #9
  %11 = load ptr, ptr %2, align 8
  %12 = getelementptr inbounds %struct.Vec_Flt_t_, ptr %11, i32 0, i32 2
  store ptr null, ptr %12, align 8
  br label %14

13:                                               ; preds = %1
  br label %14

14:                                               ; preds = %13, %7
  %15 = load ptr, ptr %2, align 8
  %16 = icmp ne ptr %15, null
  br i1 %16, label %17, label %19

17:                                               ; preds = %14
  %18 = load ptr, ptr %2, align 8
  call void @free(ptr noundef %18) #9
  store ptr null, ptr %2, align 8
  br label %20

19:                                               ; preds = %14
  br label %20

20:                                               ; preds = %19, %17
  ret void
}

; Function Attrs: nounwind uwtable
define internal i32 @Vec_PtrSize(ptr noundef %0) #0 {
  %2 = alloca ptr, align 8
  store ptr %0, ptr %2, align 8
  %3 = load ptr, ptr %2, align 8
  %4 = getelementptr inbounds %struct.Vec_Ptr_t_, ptr %3, i32 0, i32 1
  %5 = load i32, ptr %4, align 4
  ret i32 %5
}

; Function Attrs: nounwind uwtable
define internal void @Vec_VecFree(ptr noundef %0) #0 {
  %2 = alloca ptr, align 8
  %3 = alloca ptr, align 8
  %4 = alloca i32, align 4
  store ptr %0, ptr %2, align 8
  store i32 0, ptr %4, align 4
  br label %5

5:                                                ; preds = %22, %1
  %6 = load i32, ptr %4, align 4
  %7 = load ptr, ptr %2, align 8
  %8 = call i32 @Vec_VecSize(ptr noundef %7)
  %9 = icmp slt i32 %6, %8
  br i1 %9, label %10, label %14

10:                                               ; preds = %5
  %11 = load ptr, ptr %2, align 8
  %12 = load i32, ptr %4, align 4
  %13 = call ptr @Vec_VecEntry(ptr noundef %11, i32 noundef %12)
  store ptr %13, ptr %3, align 8
  br label %14

14:                                               ; preds = %10, %5
  %15 = phi i1 [ false, %5 ], [ true, %10 ]
  br i1 %15, label %16, label %25

16:                                               ; preds = %14
  %17 = load ptr, ptr %3, align 8
  %18 = icmp ne ptr %17, null
  br i1 %18, label %19, label %21

19:                                               ; preds = %16
  %20 = load ptr, ptr %3, align 8
  call void @Vec_PtrFree(ptr noundef %20)
  br label %21

21:                                               ; preds = %19, %16
  br label %22

22:                                               ; preds = %21
  %23 = load i32, ptr %4, align 4
  %24 = add nsw i32 %23, 1
  store i32 %24, ptr %4, align 4
  br label %5, !llvm.loop !4

25:                                               ; preds = %14
  %26 = load ptr, ptr %2, align 8
  call void @Vec_PtrFree(ptr noundef %26)
  ret void
}

; Function Attrs: nounwind uwtable
define internal void @Vec_PtrFree(ptr noundef %0) #0 {
  %2 = alloca ptr, align 8
  store ptr %0, ptr %2, align 8
  %3 = load ptr, ptr %2, align 8
  %4 = getelementptr inbounds %struct.Vec_Ptr_t_, ptr %3, i32 0, i32 2
  %5 = load ptr, ptr %4, align 8
  %6 = icmp ne ptr %5, null
  br i1 %6, label %7, label %13

7:                                                ; preds = %1
  %8 = load ptr, ptr %2, align 8
  %9 = getelementptr inbounds %struct.Vec_Ptr_t_, ptr %8, i32 0, i32 2
  %10 = load ptr, ptr %9, align 8
  call void @free(ptr noundef %10) #9
  %11 = load ptr, ptr %2, align 8
  %12 = getelementptr inbounds %struct.Vec_Ptr_t_, ptr %11, i32 0, i32 2
  store ptr null, ptr %12, align 8
  br label %14

13:                                               ; preds = %1
  br label %14

14:                                               ; preds = %13, %7
  %15 = load ptr, ptr %2, align 8
  %16 = icmp ne ptr %15, null
  br i1 %16, label %17, label %19

17:                                               ; preds = %14
  %18 = load ptr, ptr %2, align 8
  call void @free(ptr noundef %18) #9
  store ptr null, ptr %2, align 8
  br label %20

19:                                               ; preds = %14
  br label %20

20:                                               ; preds = %19, %17
  ret void
}

; Function Attrs: nounwind uwtable
define internal ptr @Vec_PtrEntry(ptr noundef %0, i32 noundef %1) #0 {
  %3 = alloca ptr, align 8
  %4 = alloca i32, align 4
  store ptr %0, ptr %3, align 8
  store i32 %1, ptr %4, align 4
  %5 = load ptr, ptr %3, align 8
  %6 = getelementptr inbounds %struct.Vec_Ptr_t_, ptr %5, i32 0, i32 2
  %7 = load ptr, ptr %6, align 8
  %8 = load i32, ptr %4, align 4
  %9 = sext i32 %8 to i64
  %10 = getelementptr inbounds ptr, ptr %7, i64 %9
  %11 = load ptr, ptr %10, align 8
  ret ptr %11
}

; Function Attrs: nounwind uwtable
define void @Bac_PtrFreeNtk(ptr noundef %0) #0 {
  %2 = alloca ptr, align 8
  store ptr %0, ptr %2, align 8
  %3 = load ptr, ptr %2, align 8
  %4 = call ptr @Vec_PtrEntry(ptr noundef %3, i32 noundef 1)
  call void @Vec_PtrFree(ptr noundef %4)
  %5 = load ptr, ptr %2, align 8
  %6 = call ptr @Vec_PtrEntry(ptr noundef %5, i32 noundef 2)
  call void @Vec_PtrFree(ptr noundef %6)
  %7 = load ptr, ptr %2, align 8
  %8 = call ptr @Vec_PtrEntry(ptr noundef %7, i32 noundef 3)
  call void @Vec_VecFree(ptr noundef %8)
  %9 = load ptr, ptr %2, align 8
  %10 = call ptr @Vec_PtrEntry(ptr noundef %9, i32 noundef 4)
  call void @Vec_VecFree(ptr noundef %10)
  %11 = load ptr, ptr %2, align 8
  %12 = call i32 @Vec_PtrSize(ptr noundef %11)
  %13 = icmp sgt i32 %12, 5
  br i1 %13, label %14, label %17

14:                                               ; preds = %1
  %15 = load ptr, ptr %2, align 8
  %16 = call ptr @Vec_PtrEntry(ptr noundef %15, i32 noundef 5)
  call void @Vec_FltFree(ptr noundef %16)
  br label %17

17:                                               ; preds = %14, %1
  %18 = load ptr, ptr %2, align 8
  %19 = call i32 @Vec_PtrSize(ptr noundef %18)
  %20 = icmp sgt i32 %19, 6
  br i1 %20, label %21, label %24

21:                                               ; preds = %17
  %22 = load ptr, ptr %2, align 8
  %23 = call ptr @Vec_PtrEntry(ptr noundef %22, i32 noundef 6)
  call void @Vec_FltFree(ptr noundef %23)
  br label %24

24:                                               ; preds = %21, %17
  %25 = load ptr, ptr %2, align 8
  call void @Vec_PtrFree(ptr noundef %25)
  ret void
}