; Function Attrs: nounwind uwtable
define void @Bac_PtrFreeNtk(ptr noundef captures(none) %0) local_unnamed_addr #0 {
  %2 = getelementptr i8, ptr %0, i64 8
  %.val = load ptr, ptr %2, align 8
  %3 = getelementptr inbounds nuw i8, ptr %.val, i64 8
  %4 = load ptr, ptr %3, align 8
  %5 = getelementptr inbounds nuw i8, ptr %4, i64 8
  %6 = load ptr, ptr %5, align 8
  %.not.i = icmp eq ptr %6, null
  br i1 %.not.i, label %Vec_PtrFree.exit, label %7

7:                                                ; preds = %1
  tail call void @free(ptr noundef nonnull %6) #14
  br label %Vec_PtrFree.exit

Vec_PtrFree.exit:                                 ; preds = %1, %7
  tail call void @free(ptr noundef nonnull %4) #14
  %.val9 = load ptr, ptr %2, align 8
  %8 = getelementptr inbounds nuw i8, ptr %.val9, i64 16
  %9 = load ptr, ptr %8, align 8
  %10 = getelementptr inbounds nuw i8, ptr %9, i64 8
  %11 = load ptr, ptr %10, align 8
  %.not.i16 = icmp eq ptr %11, null
  br i1 %.not.i16, label %Vec_PtrFree.exit17, label %12

12:                                               ; preds = %Vec_PtrFree.exit
  tail call void @free(ptr noundef nonnull %11) #14
  br label %Vec_PtrFree.exit17

Vec_PtrFree.exit17:                               ; preds = %Vec_PtrFree.exit, %12
  tail call void @free(ptr noundef nonnull %9) #14
  %.val10 = load ptr, ptr %2, align 8
  %13 = getelementptr inbounds nuw i8, ptr %.val10, i64 24
  %14 = load ptr, ptr %13, align 8
  %15 = getelementptr i8, ptr %14, i64 4
  %.val11.i = load i32, ptr %15, align 4
  %16 = icmp sgt i32 %.val11.i, 0
  br i1 %16, label %.lr.ph.i, label %.critedge.i

.lr.ph.i:                                         ; preds = %Vec_PtrFree.exit17
  %17 = getelementptr i8, ptr %14, i64 8
  br label %18

18:                                               ; preds = %25, %.lr.ph.i
  %.val14.i = phi i32 [ %.val11.i, %.lr.ph.i ], [ %.val.i, %25 ]
  %indvars.iv.i = phi i64 [ 0, %.lr.ph.i ], [ %indvars.iv.next.i, %25 ]
  %.val8.i = load ptr, ptr %17, align 8
  %19 = getelementptr inbounds nuw ptr, ptr %.val8.i, i64 %indvars.iv.i
  %20 = load ptr, ptr %19, align 8
  %.not.i18 = icmp eq ptr %20, null
  br i1 %.not.i18, label %25, label %21

21:                                               ; preds = %18
  %22 = getelementptr inbounds nuw i8, ptr %20, i64 8
  %23 = load ptr, ptr %22, align 8
  %.not.i.i = icmp eq ptr %23, null
  br i1 %.not.i.i, label %Vec_PtrFree.exit.i, label %24

24:                                               ; preds = %21
  tail call void @free(ptr noundef nonnull %23) #14
  br label %Vec_PtrFree.exit.i

Vec_PtrFree.exit.i:                               ; preds = %24, %21
  tail call void @free(ptr noundef nonnull %20) #14
  %.val.pre.i = load i32, ptr %15, align 4
  br label %25

25:                                               ; preds = %Vec_PtrFree.exit.i, %18
  %.val.i = phi i32 [ %.val14.i, %18 ], [ %.val.pre.i, %Vec_PtrFree.exit.i ]
  %indvars.iv.next.i = add nuw nsw i64 %indvars.iv.i, 1
  %26 = sext i32 %.val.i to i64
  %27 = icmp slt i64 %indvars.iv.next.i, %26
  br i1 %27, label %18, label %.critedge.i, !llvm.loop !4

.critedge.i:                                      ; preds = %25, %Vec_PtrFree.exit17
  %28 = getelementptr inbounds nuw i8, ptr %14, i64 8
  %29 = load ptr, ptr %28, align 8
  %.not.i9.i = icmp eq ptr %29, null
  br i1 %.not.i9.i, label %Vec_VecFree.exit, label %30

30:                                               ; preds = %.critedge.i
  tail call void @free(ptr noundef nonnull %29) #14
  br label %Vec_VecFree.exit

Vec_VecFree.exit:                                 ; preds = %.critedge.i, %30
  tail call void @free(ptr noundef nonnull %14) #14
  %.val11 = load ptr, ptr %2, align 8
  %31 = getelementptr inbounds nuw i8, ptr %.val11, i64 32
  %32 = load ptr, ptr %31, align 8
  %33 = getelementptr i8, ptr %32, i64 4
  %.val11.i19 = load i32, ptr %33, align 4
  %34 = icmp sgt i32 %.val11.i19, 0
  br i1 %34, label %.lr.ph.i22, label %.critedge.i20

.lr.ph.i22:                                       ; preds = %Vec_VecFree.exit
  %35 = getelementptr i8, ptr %32, i64 8
  br label %36

36:                                               ; preds = %43, %.lr.ph.i22
  %.val14.i23 = phi i32 [ %.val11.i19, %.lr.ph.i22 ], [ %.val.i30, %43 ]
  %indvars.iv.i24 = phi i64 [ 0, %.lr.ph.i22 ], [ %indvars.iv.next.i31, %43 ]
  %.val8.i25 = load ptr, ptr %35, align 8
  %37 = getelementptr inbounds nuw ptr, ptr %.val8.i25, i64 %indvars.iv.i24
  %38 = load ptr, ptr %37, align 8
  %.not.i26 = icmp eq ptr %38, null
  br i1 %.not.i26, label %43, label %39

39:                                               ; preds = %36
  %40 = getelementptr inbounds nuw i8, ptr %38, i64 8
  %41 = load ptr, ptr %40, align 8
  %.not.i.i27 = icmp eq ptr %41, null
  br i1 %.not.i.i27, label %Vec_PtrFree.exit.i28, label %42

42:                                               ; preds = %39
  tail call void @free(ptr noundef nonnull %41) #14
  br label %Vec_PtrFree.exit.i28

Vec_PtrFree.exit.i28:                             ; preds = %42, %39
  tail call void @free(ptr noundef nonnull %38) #14
  %.val.pre.i29 = load i32, ptr %33, align 4
  br label %43

43:                                               ; preds = %Vec_PtrFree.exit.i28, %36
  %.val.i30 = phi i32 [ %.val14.i23, %36 ], [ %.val.pre.i29, %Vec_PtrFree.exit.i28 ]
  %indvars.iv.next.i31 = add nuw nsw i64 %indvars.iv.i24, 1
  %44 = sext i32 %.val.i30 to i64
  %45 = icmp slt i64 %indvars.iv.next.i31, %44
  br i1 %45, label %36, label %.critedge.i20, !llvm.loop !4

.critedge.i20:                                    ; preds = %43, %Vec_VecFree.exit
  %46 = getelementptr inbounds nuw i8, ptr %32, i64 8
  %47 = load ptr, ptr %46, align 8
  %.not.i9.i21 = icmp eq ptr %47, null
  br i1 %.not.i9.i21, label %Vec_VecFree.exit32, label %48

48:                                               ; preds = %.critedge.i20
  tail call void @free(ptr noundef nonnull %47) #14
  br label %Vec_VecFree.exit32

Vec_VecFree.exit32:                               ; preds = %.critedge.i20, %48
  tail call void @free(ptr noundef nonnull %32) #14
  %49 = getelementptr i8, ptr %0, i64 4
  %.val14 = load i32, ptr %49, align 4
  %50 = icmp sgt i32 %.val14, 5
  br i1 %50, label %51, label %.thread

51:                                               ; preds = %Vec_VecFree.exit32
  %.val12 = load ptr, ptr %2, align 8
  %52 = getelementptr inbounds nuw i8, ptr %.val12, i64 40
  %53 = load ptr, ptr %52, align 8
  %54 = getelementptr inbounds nuw i8, ptr %53, i64 8
  %55 = load ptr, ptr %54, align 8
  %.not.i33 = icmp eq ptr %55, null
  br i1 %.not.i33, label %57, label %56

56:                                               ; preds = %51
  tail call void @free(ptr noundef nonnull %55) #14
  br label %57

57:                                               ; preds = %56, %51
  tail call void @free(ptr noundef nonnull %53) #14
  %.val15.pr = load i32, ptr %49, align 4
  %58 = icmp sgt i32 %.val15.pr, 6
  br i1 %58, label %59, label %.thread

59:                                               ; preds = %57
  %.val13 = load ptr, ptr %2, align 8
  %60 = getelementptr inbounds nuw i8, ptr %.val13, i64 48
  %61 = load ptr, ptr %60, align 8
  %62 = getelementptr inbounds nuw i8, ptr %61, i64 8
  %63 = load ptr, ptr %62, align 8
  %.not.i34 = icmp eq ptr %63, null
  br i1 %.not.i34, label %Vec_FltFree.exit35, label %64

64:                                               ; preds = %59
  tail call void @free(ptr noundef nonnull %63) #14
  br label %Vec_FltFree.exit35

Vec_FltFree.exit35:                               ; preds = %59, %64
  tail call void @free(ptr noundef nonnull %61) #14
  br label %.thread

.thread:                                          ; preds = %Vec_VecFree.exit32, %Vec_FltFree.exit35, %57
  %65 = load ptr, ptr %2, align 8
  %.not.i36 = icmp eq ptr %65, null
  br i1 %.not.i36, label %Vec_PtrFree.exit37, label %66

66:                                               ; preds = %.thread
  tail call void @free(ptr noundef nonnull %65) #14
  br label %Vec_PtrFree.exit37

Vec_PtrFree.exit37:                               ; preds = %.thread, %66
  tail call void @free(ptr noundef nonnull %0) #14
  ret void
}